target datalayout = "e-m:e-p270:32:32-p271:32:32-p272:64:64-i64:64-i128:128-f80:128-n8:16:32:64-S128"
target triple = "x86_64-unknown-linux-gnu"

%struct.Type = type { i32, i32, i32, i8, i8, ptr, ptr, ptr, ptr, i32, ptr, ptr, ptr, i8, i8, ptr, ptr, i8, ptr }

@.str.23 = private unnamed_addr constant [2 x i8] c"(\00", align 1
@.str.24 = private unnamed_addr constant [2 x i8] c")\00", align 1
@.str.57 = private unnamed_addr constant [2 x i8] c",\00", align 1
@.str.135 = private unnamed_addr constant [14 x i8] c"__attribute__\00", align 1
@.str.136 = private unnamed_addr constant [7 x i8] c"packed\00", align 1
@.str.137 = private unnamed_addr constant [8 x i8] c"aligned\00", align 1
@.str.138 = private unnamed_addr constant [18 x i8] c"unknown attribute\00", align 1

; Function Attrs: nounwind uwtable
define internal i64 @eval(ptr noundef %node) #0 {
entry:
  %node.addr = alloca ptr, align 8
  store ptr %node, ptr %node.addr, align 8
  %0 = load ptr, ptr %node.addr, align 8
  %call = call i64 @eval2(ptr noundef %0, ptr noundef null)
  ret i64 %call
}

; Function Attrs: nounwind uwtable
define dso_local i64 @const_expr(ptr noundef %rest, ptr noundef %tok) #0 {
entry:
  %rest.addr = alloca ptr, align 8
  %tok.addr = alloca ptr, align 8
  %node = alloca ptr, align 8
  store ptr %rest, ptr %rest.addr, align 8
  store ptr %tok, ptr %tok.addr, align 8
  %0 = load ptr, ptr %rest.addr, align 8
  %1 = load ptr, ptr %tok.addr, align 8
  %call = call ptr @conditional(ptr noundef %0, ptr noundef %1)
  store ptr %call, ptr %node, align 8
  %2 = load ptr, ptr %node, align 8
  %call1 = call i64 @eval(ptr noundef %2)
  ret i64 %call1
}

; Function Attrs: nounwind uwtable
define internal ptr @attribute_list(ptr noundef %tok, ptr noundef %ty) #0 {
entry:
  %tok.addr = alloca ptr, align 8
  %ty.addr = alloca ptr, align 8
  %first = alloca i8, align 1
  store ptr %tok, ptr %tok.addr, align 8
  store ptr %ty, ptr %ty.addr, align 8
  br label %while.cond

while.cond:                                       ; preds = %while.end, %entry
  %0 = load ptr, ptr %tok.addr, align 8
  %call = call zeroext i1 @consume(ptr noundef %tok.addr, ptr noundef %0, ptr noundef @.str.135)
  br i1 %call, label %while.body, label %while.end17

while.body:                                       ; preds = %while.cond
  %1 = load ptr, ptr %tok.addr, align 8
  %call1 = call ptr @skip(ptr noundef %1, ptr noundef @.str.23)
  store ptr %call1, ptr %tok.addr, align 8
  %2 = load ptr, ptr %tok.addr, align 8
  %call2 = call ptr @skip(ptr noundef %2, ptr noundef @.str.23)
  store ptr %call2, ptr %tok.addr, align 8
  store i8 1, ptr %first, align 1
  br label %while.cond3

while.cond3:                                      ; preds = %if.then11, %if.then8, %while.body
  %3 = load ptr, ptr %tok.addr, align 8
  %call4 = call zeroext i1 @consume(ptr noundef %tok.addr, ptr noundef %3, ptr noundef @.str.24)
  %lnot = xor i1 %call4, true
  br i1 %lnot, label %while.body5, label %while.end

while.body5:                                      ; preds = %while.cond3
  %4 = load i8, ptr %first, align 1
  %tobool = trunc i8 %4 to i1
  br i1 %tobool, label %if.end, label %if.then

if.then:                                          ; preds = %while.body5
  %5 = load ptr, ptr %tok.addr, align 8
  %call6 = call ptr @skip(ptr noundef %5, ptr noundef @.str.57)
  store ptr %call6, ptr %tok.addr, align 8
  br label %if.end

if.end:                                           ; preds = %if.then, %while.body5
  store i8 0, ptr %first, align 1
  %6 = load ptr, ptr %tok.addr, align 8
  %call7 = call zeroext i1 @consume(ptr noundef %tok.addr, ptr noundef %6, ptr noundef @.str.136)
  br i1 %call7, label %if.then8, label %if.end9

if.then8:                                         ; preds = %if.end
  %7 = load ptr, ptr %ty.addr, align 8
  %is_packed = getelementptr inbounds %struct.Type, ptr %7, i32 0, i32 14
  store i8 1, ptr %is_packed, align 1
  br label %while.cond3, !llvm.loop !56

if.end9:                                          ; preds = %if.end
  %8 = load ptr, ptr %tok.addr, align 8
  %call10 = call zeroext i1 @consume(ptr noundef %tok.addr, ptr noundef %8, ptr noundef @.str.137)
  br i1 %call10, label %if.then11, label %if.end15

if.then11:                                        ; preds = %if.end9
  %9 = load ptr, ptr %tok.addr, align 8
  %call12 = call ptr @skip(ptr noundef %9, ptr noundef @.str.23)
  store ptr %call12, ptr %tok.addr, align 8
  %10 = load ptr, ptr %tok.addr, align 8
  %call13 = call i64 @const_expr(ptr noundef %tok.addr, ptr noundef %10)
  %conv = trunc i64 %call13 to i32
  %11 = load ptr, ptr %ty.addr, align 8
  %align = getelementptr inbounds %struct.Type, ptr %11, i32 0, i32 2
  store i32 %conv, ptr %align, align 8
  %12 = load ptr, ptr %tok.addr, align 8
  %call14 = call ptr @skip(ptr noundef %12, ptr noundef @.str.24)
  store ptr %call14, ptr %tok.addr, align 8
  br label %while.cond3, !llvm.loop !56

if.end15:                                         ; preds = %if.end9
  %13 = load ptr, ptr %tok.addr, align 8
  call void (ptr, ptr, ...) @error_tok(ptr noundef %13, ptr noundef @.str.138) #9
  unreachable

while.end:                                        ; preds = %while.cond3
  %14 = load ptr, ptr %tok.addr, align 8
  %call16 = call ptr @skip(ptr noundef %14, ptr noundef @.str.24)
  store ptr %call16, ptr %tok.addr, align 8
  br label %while.cond, !llvm.loop !57

while.end17:                                      ; preds = %while.cond
  %15 = load ptr, ptr %tok.addr, align 8
  ret ptr %15
}