; Function Attrs: nounwind uwtable
define internal fastcc ptr @attribute_list(ptr noundef %tok, ptr nocapture noundef writeonly %ty) unnamed_addr #0 {
entry:
  %tok.addr = alloca ptr, align 8
  store ptr %tok, ptr %tok.addr, align 8
  %call5 = call zeroext i1 @consume(ptr noundef nonnull %tok.addr, ptr noundef %tok, ptr noundef nonnull @.str.135) #13
  br i1 %call5, label %while.body.lr.ph, label %while.end17

while.body.lr.ph:                                 ; preds = %entry
  %align = getelementptr inbounds %struct.Type, ptr %ty, i64 0, i32 2
  %is_packed = getelementptr inbounds %struct.Type, ptr %ty, i64 0, i32 14
  br label %while.body

while.body:                                       ; preds = %while.body.lr.ph, %while.end
  %0 = load ptr, ptr %tok.addr, align 8
  %call1 = call ptr @skip(ptr noundef %0, ptr noundef nonnull @.str.23) #13
  store ptr %call1, ptr %tok.addr, align 8
  %call2 = call ptr @skip(ptr noundef %call1, ptr noundef nonnull @.str.23) #13
  store ptr %call2, ptr %tok.addr, align 8
  %call42 = call zeroext i1 @consume(ptr noundef nonnull %tok.addr, ptr noundef %call2, ptr noundef nonnull @.str.24) #13
  br i1 %call42, label %while.end, label %if.end.preheader

if.end.preheader:                                 ; preds = %while.body
  %.pre = load ptr, ptr %tok.addr, align 8
  br label %if.end

if.then.critedge:                                 ; preds = %while.cond3.backedge
  %1 = load ptr, ptr %tok.addr, align 8
  %call6 = call ptr @skip(ptr noundef %1, ptr noundef nonnull @.str.57) #13
  store ptr %call6, ptr %tok.addr, align 8
  br label %if.end

if.end:                                           ; preds = %if.end.preheader, %if.then.critedge
  %2 = phi ptr [ %.pre, %if.end.preheader ], [ %call6, %if.then.critedge ]
  %call7 = call zeroext i1 @consume(ptr noundef nonnull %tok.addr, ptr noundef %2, ptr noundef nonnull @.str.136) #13
  br i1 %call7, label %if.then8, label %if.end9

if.then8:                                         ; preds = %if.end
  store i8 1, ptr %is_packed, align 1
  %.pre6 = load ptr, ptr %tok.addr, align 8
  br label %while.cond3.backedge

while.cond3.backedge:                             ; preds = %if.then8, %if.then11
  %3 = phi ptr [ %.pre6, %if.then8 ], [ %call14, %if.then11 ]
  %call4 = call zeroext i1 @consume(ptr noundef nonnull %tok.addr, ptr noundef %3, ptr noundef nonnull @.str.24) #13
  br i1 %call4, label %while.end, label %if.then.critedge, !llvm.loop !60

if.end9:                                          ; preds = %if.end
  %4 = load ptr, ptr %tok.addr, align 8
  %call10 = call zeroext i1 @consume(ptr noundef nonnull %tok.addr, ptr noundef %4, ptr noundef nonnull @.str.137) #13
  %5 = load ptr, ptr %tok.addr, align 8
  br i1 %call10, label %if.then11, label %if.end15

if.then11:                                        ; preds = %if.end9
  %call12 = call ptr @skip(ptr noundef %5, ptr noundef nonnull @.str.23) #13
  store ptr %call12, ptr %tok.addr, align 8
  %call.i = call fastcc ptr @conditional(ptr noundef nonnull %tok.addr, ptr noundef %call12)
  %call.i.i = call fastcc i64 @eval2(ptr noundef %call.i, ptr noundef null)
  %conv = trunc i64 %call.i.i to i32
  store i32 %conv, ptr %align, align 8
  %6 = load ptr, ptr %tok.addr, align 8
  %call14 = call ptr @skip(ptr noundef %6, ptr noundef nonnull @.str.24) #13
  store ptr %call14, ptr %tok.addr, align 8
  br label %while.cond3.backedge

if.end15:                                         ; preds = %if.end9
  call void (ptr, ptr, ...) @error_tok(ptr noundef %5, ptr noundef nonnull @.str.138) #16
  unreachable

while.end:                                        ; preds = %while.cond3.backedge, %while.body
  %7 = load ptr, ptr %tok.addr, align 8
  %call16 = call ptr @skip(ptr noundef %7, ptr noundef nonnull @.str.24) #13
  store ptr %call16, ptr %tok.addr, align 8
  %call = call zeroext i1 @consume(ptr noundef nonnull %tok.addr, ptr noundef %call16, ptr noundef nonnull @.str.135) #13
  br i1 %call, label %while.body, label %while.end17, !llvm.loop !61

while.end17:                                      ; preds = %while.end, %entry
  %8 = load ptr, ptr %tok.addr, align 8
  ret ptr %8
}